; Function Attrs: mustprogress nounwind uwtable
define dso_local noundef i32 @_ZN4llvm3X8615getCondFromCCMPERKNS_12MachineInstrE(ptr noundef nonnull readonly align 8 captures(none) dereferenceable(70) %0) local_unnamed_addr #1 {
  %2 = getelementptr inbounds nuw i8, ptr %0, i64 68
  %3 = load i16, ptr %2, align 4
  %4 = zext i16 %3 to i32
  %5 = tail call noundef zeroext i1 @_ZN4llvm3X868isCCMPCCEj(i32 noundef %4) #29
  br i1 %5, label %10, label %6

6:                                                ; preds = %1
  %7 = load i16, ptr %2, align 4
  %8 = zext i16 %7 to i32
  %9 = tail call noundef zeroext i1 @_ZN4llvm3X869isCTESTCCEj(i32 noundef %8) #29
  br i1 %9, label %10, label %_ZN4llvm3X8613getCondFromMIERKNS_12MachineInstrE.exit

10:                                               ; preds = %6, %1
  %11 = getelementptr inbounds nuw i8, ptr %0, i64 16
  %12 = load ptr, ptr %11, align 8
  %13 = tail call noundef i32 @_ZN4llvm3X8620getCondSrcNoFromDescERKNS_11MCInstrDescE(ptr noundef nonnull align 8 dereferenceable(32) %12)
  %14 = icmp slt i32 %13, 0
  br i1 %14, label %_ZN4llvm3X8613getCondFromMIERKNS_12MachineInstrE.exit, label %15

15:                                               ; preds = %10
  %16 = getelementptr inbounds nuw i8, ptr %12, i64 4
  %17 = load i8, ptr %16, align 4
  %18 = zext i8 %17 to i32
  %19 = add nuw nsw i32 %13, %18
  %20 = getelementptr inbounds nuw i8, ptr %0, i64 32
  %21 = load ptr, ptr %20, align 8
  %22 = zext nneg i32 %19 to i64
  %23 = getelementptr inbounds nuw %"class.llvm::MachineOperand", ptr %21, i64 %22, i32 3
  %24 = load i64, ptr %23, align 8
  %25 = trunc i64 %24 to i32
  br label %_ZN4llvm3X8613getCondFromMIERKNS_12MachineInstrE.exit

_ZN4llvm3X8613getCondFromMIERKNS_12MachineInstrE.exit: ; preds = %15, %10, %6
  %26 = phi i32 [ 18, %6 ], [ %25, %15 ], [ 18, %10 ]
  ret i32 %26
}